; Function Attrs: mustprogress nounwind uwtable
define dso_local void @_ZN4node14PrincipalRealm41set_primordials_safe_map_prototype_objectEN2v85LocalINS1_6ObjectEEE(ptr nocapture noundef nonnull align 8 dereferenceable(872) %this, ptr readonly %value.coerce) unnamed_addr #3 align 2 {
entry:
  %primordials_safe_map_prototype_object_ = getelementptr inbounds i8, ptr %this, i64 536
  %isolate_.i = getelementptr inbounds i8, ptr %this, i64 184
  %0 = load ptr, ptr %isolate_.i, align 8
  %1 = load ptr, ptr %primordials_safe_map_prototype_object_, align 8
  %cmp.i.i10 = icmp eq ptr %1, null
  br i1 %cmp.i.i10, label %_ZN2v814PersistentBaseINS_6ObjectEE5ResetEv.exit, label %if.end.i11

if.end.i11:                                       ; preds = %entry
  tail call void @_ZN2v812api_internal13DisposeGlobalEPm(ptr noundef nonnull %1) #18
  store ptr null, ptr %primordials_safe_map_prototype_object_, align 8
  br label %_ZN2v814PersistentBaseINS_6ObjectEE5ResetEv.exit

_ZN2v814PersistentBaseINS_6ObjectEE5ResetEv.exit: ; preds = %entry, %if.end.i11
  %cmp.i.i = icmp eq ptr %value.coerce, null
  br i1 %cmp.i.i, label %_ZN2v814PersistentBaseINS_6ObjectEE5ResetIS1_EEvPNS_7IsolateERKNS_5LocalIT_EE.exit, label %if.end.i18

if.end.i18:                                       ; preds = %_ZN2v814PersistentBaseINS_6ObjectEE5ResetEv.exit
  %2 = load i64, ptr %value.coerce, align 8
  %call2.i = tail call noundef ptr @_ZN2v812api_internal18GlobalizeReferenceEPNS_8internal7IsolateEm(ptr noundef %0, i64 noundef %2) #18
  store ptr %call2.i, ptr %primordials_safe_map_prototype_object_, align 8
  br label %_ZN2v814PersistentBaseINS_6ObjectEE5ResetIS1_EEvPNS_7IsolateERKNS_5LocalIT_EE.exit

_ZN2v814PersistentBaseINS_6ObjectEE5ResetIS1_EEvPNS_7IsolateERKNS_5LocalIT_EE.exit: ; preds = %_ZN2v814PersistentBaseINS_6ObjectEE5ResetEv.exit, %if.end.i18
  ret void
}